target datalayout = "e-m:e-p270:32:32-p271:32:32-p272:64:64-i64:64-i128:128-f80:128-n8:16:32:64-S128"
target triple = "x86_64-pc-linux-gnu"

%"class.std::unique_ptr" = type { %"struct.std::__uniq_ptr_data" }
%"struct.std::__uniq_ptr_data" = type { %"class.std::__uniq_ptr_impl" }
%"class.std::__uniq_ptr_impl" = type { %"class.std::tuple" }
%"class.std::tuple" = type { %"struct.std::_Tuple_impl" }
%"struct.std::_Tuple_impl" = type { %"struct.std::_Head_base.21" }
%"struct.std::_Head_base.21" = type { ptr }
%"class.std::__shared_count" = type { ptr }
%"class.open_spiel::algorithms::InfostateTree" = type { i32, %"class.std::shared_ptr", %"class.std::unique_ptr", i64, %"class.std::vector.22", %"class.std::vector.22", %"class.std::vector.27" }
%"class.std::shared_ptr" = type { %"class.std::__shared_ptr" }
%"class.std::__shared_ptr" = type { ptr, %"class.std::__shared_count" }
%"class.std::vector.22" = type { %"struct.std::_Vector_base.23" }
%"struct.std::_Vector_base.23" = type { %"struct.std::_Vector_base<open_spiel::algorithms::InfostateNode *, std::allocator<open_spiel::algorithms::InfostateNode *>>::_Vector_impl" }
%"struct.std::_Vector_base<open_spiel::algorithms::InfostateNode *, std::allocator<open_spiel::algorithms::InfostateNode *>>::_Vector_impl" = type { %"struct.std::_Vector_base<open_spiel::algorithms::InfostateNode *, std::allocator<open_spiel::algorithms::InfostateNode *>>::_Vector_impl_data" }
%"struct.std::_Vector_base<open_spiel::algorithms::InfostateNode *, std::allocator<open_spiel::algorithms::InfostateNode *>>::_Vector_impl_data" = type { ptr, ptr, ptr }
%"class.std::vector.27" = type { %"struct.std::_Vector_base.28" }
%"struct.std::_Vector_base.28" = type { %"struct.std::_Vector_base<std::vector<open_spiel::algorithms::InfostateNode *>, std::allocator<std::vector<open_spiel::algorithms::InfostateNode *>>>::_Vector_impl" }
%"struct.std::_Vector_base<std::vector<open_spiel::algorithms::InfostateNode *>, std::allocator<std::vector<open_spiel::algorithms::InfostateNode *>>>::_Vector_impl" = type { %"struct.std::_Vector_base<std::vector<open_spiel::algorithms::InfostateNode *>, std::allocator<std::vector<open_spiel::algorithms::InfostateNode *>>>::_Vector_impl_data" }
%"struct.std::_Vector_base<std::vector<open_spiel::algorithms::InfostateNode *>, std::allocator<std::vector<open_spiel::algorithms::InfostateNode *>>>::_Vector_impl_data" = type { ptr, ptr, ptr }

; Function Attrs: mustprogress uwtable
define void @_ZN10open_spiel10algorithms13InfostateTree20RecursivelyBuildTreeEPNS0_13InfostateNodeEmRKNS_5StateEid(ptr noundef nonnull align 8 dereferenceable(112) %0, ptr noundef %1, i64 noundef %2, ptr noundef nonnull align 8 dereferenceable(60) %3, i32 noundef %4, double noundef %5) #4 align 2 {
  %7 = alloca ptr, align 8
  %8 = alloca ptr, align 8
  %9 = alloca i64, align 8
  %10 = alloca ptr, align 8
  %11 = alloca i32, align 4
  %12 = alloca double, align 8
  store ptr %0, ptr %7, align 8
  store ptr %1, ptr %8, align 8
  store i64 %2, ptr %9, align 8
  store ptr %3, ptr %10, align 8
  store i32 %4, ptr %11, align 4
  store double %5, ptr %12, align 8
  %13 = load ptr, ptr %7, align 8
  %14 = load ptr, ptr %10, align 8
  %15 = load ptr, ptr %14, align 8
  %16 = getelementptr inbounds ptr, ptr %15, i64 11
  %17 = load ptr, ptr %16, align 8
  %18 = call noundef zeroext i1 %17(ptr noundef nonnull align 8 dereferenceable(60) %14)
  br i1 %18, label %19, label %24

19:                                               ; preds = %6
  %20 = load ptr, ptr %8, align 8
  %21 = load i64, ptr %9, align 8
  %22 = load ptr, ptr %10, align 8
  %23 = load double, ptr %12, align 8
  call void @_ZN10open_spiel10algorithms13InfostateTree17BuildTerminalNodeEPNS0_13InfostateNodeEmRKNS_5StateEd(ptr noundef nonnull align 8 dereferenceable(112) %13, ptr noundef %20, i64 noundef %21, ptr noundef nonnull align 8 dereferenceable(60) %22, double noundef %23)
  br label %41

24:                                               ; preds = %6
  %25 = load ptr, ptr %10, align 8
  %26 = getelementptr inbounds nuw %"class.open_spiel::algorithms::InfostateTree", ptr %13, i32 0, i32 0
  %27 = load i32, ptr %26, align 8
  %28 = call noundef zeroext i1 @_ZNK10open_spiel5State14IsPlayerActingEi(ptr noundef nonnull align 8 dereferenceable(60) %25, i32 noundef %27)
  br i1 %28, label %29, label %35

29:                                               ; preds = %24
  %30 = load ptr, ptr %8, align 8
  %31 = load i64, ptr %9, align 8
  %32 = load ptr, ptr %10, align 8
  %33 = load i32, ptr %11, align 4
  %34 = load double, ptr %12, align 8
  call void @_ZN10open_spiel10algorithms13InfostateTree17BuildDecisionNodeEPNS0_13InfostateNodeEmRKNS_5StateEid(ptr noundef nonnull align 8 dereferenceable(112) %13, ptr noundef %30, i64 noundef %31, ptr noundef nonnull align 8 dereferenceable(60) %32, i32 noundef %33, double noundef %34)
  br label %41

35:                                               ; preds = %24
  %36 = load ptr, ptr %8, align 8
  %37 = load i64, ptr %9, align 8
  %38 = load ptr, ptr %10, align 8
  %39 = load i32, ptr %11, align 4
  %40 = load double, ptr %12, align 8
  call void @_ZN10open_spiel10algorithms13InfostateTree20BuildObservationNodeEPNS0_13InfostateNodeEmRKNS_5StateEid(ptr noundef nonnull align 8 dereferenceable(112) %13, ptr noundef %36, i64 noundef %37, ptr noundef nonnull align 8 dereferenceable(60) %38, i32 noundef %39, double noundef %40)
  br label %41

41:                                               ; preds = %35, %29, %19
  ret void
}