; Function Attrs: mustprogress uwtable
define void @_ZN10open_spiel10algorithms13InfostateTree20RecursivelyBuildTreeEPNS0_13InfostateNodeEmRKNS_5StateEid(ptr noundef nonnull align 8 dereferenceable(112) %0, ptr noundef %1, i64 noundef %2, ptr noundef nonnull align 8 dereferenceable(60) %3, i32 noundef %4, double noundef %5) local_unnamed_addr #3 align 2 {
  %7 = load ptr, ptr %3, align 8
  %8 = getelementptr inbounds nuw i8, ptr %7, i64 88
  %9 = load ptr, ptr %8, align 8
  %10 = tail call noundef zeroext i1 %9(ptr noundef nonnull align 8 dereferenceable(60) %3)
  br i1 %10, label %11, label %12

11:                                               ; preds = %6
  tail call void @_ZN10open_spiel10algorithms13InfostateTree17BuildTerminalNodeEPNS0_13InfostateNodeEmRKNS_5StateEd(ptr noundef nonnull align 8 dereferenceable(112) %0, ptr noundef %1, i64 noundef %2, ptr noundef nonnull align 8 dereferenceable(60) %3, double noundef %5)
  br label %17

12:                                               ; preds = %6
  %13 = load i32, ptr %0, align 8
  %14 = tail call noundef zeroext i1 @_ZNK10open_spiel5State14IsPlayerActingEi(ptr noundef nonnull align 8 dereferenceable(60) %3, i32 noundef %13)
  br i1 %14, label %15, label %16

15:                                               ; preds = %12
  tail call void @_ZN10open_spiel10algorithms13InfostateTree17BuildDecisionNodeEPNS0_13InfostateNodeEmRKNS_5StateEid(ptr noundef nonnull align 8 dereferenceable(112) %0, ptr noundef %1, i64 noundef %2, ptr noundef nonnull align 8 dereferenceable(60) %3, i32 noundef %4, double noundef %5)
  br label %17

16:                                               ; preds = %12
  tail call void @_ZN10open_spiel10algorithms13InfostateTree20BuildObservationNodeEPNS0_13InfostateNodeEmRKNS_5StateEid(ptr noundef nonnull align 8 dereferenceable(112) %0, ptr noundef %1, i64 noundef %2, ptr noundef nonnull align 8 dereferenceable(60) %3, i32 noundef %4, double noundef %5)
  br label %17

17:                                               ; preds = %16, %15, %11
  ret void
}